target datalayout = "e-m:e-p270:32:32-p271:32:32-p272:64:64-i64:64-i128:128-f80:128-n8:16:32:64-S128"
target triple = "x86_64-pc-linux-gnu"

%"class.clang::ActionResult" = type { i64 }
%"class.llvm::ArrayRef" = type { ptr, i64 }
%"class.clang::SourceLocation" = type { i32 }
%"class.clang::QualType" = type { %"class.llvm::PointerIntPair" }
%"class.llvm::PointerIntPair" = type { %"struct.llvm::detail::PunnedPointer" }
%"struct.llvm::detail::PunnedPointer" = type { [8 x i8] }
%"class.clang::Selector" = type { %"class.llvm::PointerIntPair.5" }
%"class.llvm::PointerIntPair.5" = type { %"struct.llvm::detail::PunnedPointer.6" }
%"struct.llvm::detail::PunnedPointer.6" = type { [8 x i8] }
%"class.llvm::ArrayRef.1088" = type { ptr, i64 }
%"class.llvm::MutableArrayRef" = type { %"class.llvm::ArrayRef" }

; Function Attrs: mustprogress nounwind uwtable
define linkonce_odr hidden void @_ZN4llvm8ArrayRefIN5clang14SourceLocationEEC2ERKS2_(ptr noundef nonnull align 8 dereferenceable(16) %0, ptr noundef nonnull align 4 dereferenceable(4) %1) unnamed_addr #0 comdat align 2 {
  %3 = alloca ptr, align 8
  %4 = alloca ptr, align 8
  store ptr %0, ptr %3, align 8
  store ptr %1, ptr %4, align 8
  %5 = load ptr, ptr %3, align 8
  %6 = getelementptr inbounds nuw %"class.llvm::ArrayRef.1088", ptr %5, i32 0, i32 0
  %7 = load ptr, ptr %4, align 8
  store ptr %7, ptr %6, align 8
  %8 = getelementptr inbounds nuw %"class.llvm::ArrayRef.1088", ptr %5, i32 0, i32 1
  store i64 1, ptr %8, align 8
  ret void
}

; Function Attrs: mustprogress nounwind uwtable
define linkonce_odr hidden void @_ZN5clang14SourceLocationC2Ev(ptr noundef nonnull align 4 dereferenceable(4) %0) unnamed_addr #0 comdat align 2 {
  %2 = alloca ptr, align 8
  store ptr %0, ptr %2, align 8
  %3 = load ptr, ptr %2, align 8
  %4 = getelementptr inbounds nuw %"class.clang::SourceLocation", ptr %3, i32 0, i32 0
  store i32 0, ptr %4, align 4
  ret void
}

; Function Attrs: mustprogress nounwind uwtable
define dso_local i64 @_ZN5clang8SemaObjC28BuildInstanceMessageImplicitEPNS_4ExprENS_8QualTypeENS_14SourceLocationENS_8SelectorEPNS_14ObjCMethodDeclEN4llvm15MutableArrayRefIS2_EE(ptr noundef nonnull align 8 dereferenceable(328) %0, ptr noundef %1, i64 %2, i32 %3, i64 %4, ptr noundef %5, ptr noundef byval(%"class.llvm::MutableArrayRef") align 8 %6) #0 align 2 {
  %8 = alloca %"class.clang::ActionResult", align 8
  %9 = alloca %"class.clang::QualType", align 8
  %10 = alloca %"class.clang::SourceLocation", align 4
  %11 = alloca %"class.clang::Selector", align 8
  %12 = alloca ptr, align 8
  %13 = alloca ptr, align 8
  %14 = alloca ptr, align 8
  %15 = alloca %"class.clang::QualType", align 8
  %16 = alloca %"class.clang::SourceLocation", align 4
  %17 = alloca %"class.clang::Selector", align 8
  %18 = alloca %"class.clang::SourceLocation", align 4
  %19 = alloca %"class.llvm::ArrayRef.1088", align 8
  %20 = alloca %"class.clang::SourceLocation", align 4
  %21 = alloca %"class.llvm::MutableArrayRef", align 8
  %22 = getelementptr inbounds nuw %"class.clang::QualType", ptr %9, i32 0, i32 0
  %23 = getelementptr inbounds nuw %"class.llvm::PointerIntPair", ptr %22, i32 0, i32 0
  %24 = getelementptr inbounds nuw %"struct.llvm::detail::PunnedPointer", ptr %23, i32 0, i32 0
  store i64 %2, ptr %24, align 8
  %25 = getelementptr inbounds nuw %"class.clang::SourceLocation", ptr %10, i32 0, i32 0
  store i32 %3, ptr %25, align 4
  %26 = getelementptr inbounds nuw %"class.clang::Selector", ptr %11, i32 0, i32 0
  %27 = getelementptr inbounds nuw %"class.llvm::PointerIntPair.5", ptr %26, i32 0, i32 0
  %28 = getelementptr inbounds nuw %"struct.llvm::detail::PunnedPointer.6", ptr %27, i32 0, i32 0
  store i64 %4, ptr %28, align 8
  store ptr %0, ptr %12, align 8
  store ptr %1, ptr %13, align 8
  store ptr %5, ptr %14, align 8
  %29 = load ptr, ptr %12, align 8
  %30 = load ptr, ptr %13, align 8
  call void @llvm.memcpy.p0.p0.i64(ptr align 8 %15, ptr align 8 %9, i64 8, i1 false)
  %31 = load ptr, ptr %13, align 8
  %32 = icmp ne ptr %31, null
  br i1 %32, label %34, label %33

33:                                               ; preds = %7
  call void @llvm.memcpy.p0.p0.i64(ptr align 4 %16, ptr align 4 %10, i64 4, i1 false)
  br label %35

34:                                               ; preds = %7
  call void @llvm.memset.p0.i64(ptr align 4 %16, i8 0, i64 4, i1 false)
  call void @_ZN5clang14SourceLocationC2Ev(ptr noundef nonnull align 4 dereferenceable(4) %16) #15
  br label %35

35:                                               ; preds = %34, %33
  call void @llvm.memcpy.p0.p0.i64(ptr align 8 %17, ptr align 8 %11, i64 8, i1 false)
  %36 = load ptr, ptr %14, align 8
  call void @llvm.memcpy.p0.p0.i64(ptr align 4 %18, ptr align 4 %10, i64 4, i1 false)
  call void @_ZN4llvm8ArrayRefIN5clang14SourceLocationEEC2ERKS2_(ptr noundef nonnull align 8 dereferenceable(16) %19, ptr noundef nonnull align 4 dereferenceable(4) %10)
  call void @llvm.memcpy.p0.p0.i64(ptr align 4 %20, ptr align 4 %10, i64 4, i1 false)
  call void @llvm.memcpy.p0.p0.i64(ptr align 8 %21, ptr align 8 %6, i64 16, i1 false)
  %37 = getelementptr inbounds nuw %"class.clang::QualType", ptr %15, i32 0, i32 0
  %38 = getelementptr inbounds nuw %"class.llvm::PointerIntPair", ptr %37, i32 0, i32 0
  %39 = getelementptr inbounds nuw %"struct.llvm::detail::PunnedPointer", ptr %38, i32 0, i32 0
  %40 = load i64, ptr %39, align 8
  %41 = getelementptr inbounds nuw %"class.clang::SourceLocation", ptr %16, i32 0, i32 0
  %42 = load i32, ptr %41, align 4
  %43 = getelementptr inbounds nuw %"class.clang::Selector", ptr %17, i32 0, i32 0
  %44 = getelementptr inbounds nuw %"class.llvm::PointerIntPair.5", ptr %43, i32 0, i32 0
  %45 = getelementptr inbounds nuw %"struct.llvm::detail::PunnedPointer.6", ptr %44, i32 0, i32 0
  %46 = load i64, ptr %45, align 8
  %47 = getelementptr inbounds nuw %"class.clang::SourceLocation", ptr %18, i32 0, i32 0
  %48 = load i32, ptr %47, align 4
  %49 = getelementptr inbounds nuw %"class.clang::SourceLocation", ptr %20, i32 0, i32 0
  %50 = load i32, ptr %49, align 4
  %51 = call i64 @_ZN5clang8SemaObjC20BuildInstanceMessageEPNS_4ExprENS_8QualTypeENS_14SourceLocationENS_8SelectorEPNS_14ObjCMethodDeclES4_N4llvm8ArrayRefIS4_EES4_NS8_15MutableArrayRefIS2_EEb(ptr noundef nonnull align 8 dereferenceable(328) %29, ptr noundef %30, i64 %40, i32 %42, i64 %46, ptr noundef %36, i32 %48, ptr noundef byval(%"class.llvm::ArrayRef.1088") align 8 %19, i32 %50, ptr noundef byval(%"class.llvm::MutableArrayRef") align 8 %21, i1 noundef zeroext true)
  %52 = getelementptr inbounds nuw %"class.clang::ActionResult", ptr %8, i32 0, i32 0
  store i64 %51, ptr %52, align 8
  %53 = getelementptr inbounds nuw %"class.clang::ActionResult", ptr %8, i32 0, i32 0
  %54 = load i64, ptr %53, align 8
  ret i64 %54
}