; Function Attrs: mustprogress nounwind uwtable
define dso_local i64 @_ZN5clang8SemaObjC28BuildInstanceMessageImplicitEPNS_4ExprENS_8QualTypeENS_14SourceLocationENS_8SelectorEPNS_14ObjCMethodDeclEN4llvm15MutableArrayRefIS2_EE(ptr noundef nonnull align 8 dereferenceable(328) %0, ptr noundef %1, i64 %2, i32 %3, i64 %4, ptr noundef %5, ptr nocapture noundef readonly byval(%"class.llvm::MutableArrayRef") align 8 %6) local_unnamed_addr #0 align 2 {
  %8 = alloca %"class.clang::SourceLocation", align 4
  %9 = alloca %"class.llvm::ArrayRef.1088", align 8
  store i32 %3, ptr %8, align 4
  %.not = icmp eq ptr %1, null
  %spec.select = select i1 %.not, i32 %3, i32 0
  store ptr %8, ptr %9, align 8
  %10 = getelementptr inbounds nuw i8, ptr %9, i64 8
  store i64 1, ptr %10, align 8
  %11 = call i64 @_ZN5clang8SemaObjC20BuildInstanceMessageEPNS_4ExprENS_8QualTypeENS_14SourceLocationENS_8SelectorEPNS_14ObjCMethodDeclES4_N4llvm8ArrayRefIS4_EES4_NS8_15MutableArrayRefIS2_EEb(ptr noundef nonnull align 8 dereferenceable(328) %0, ptr noundef %1, i64 %2, i32 %spec.select, i64 %4, ptr noundef %5, i32 %3, ptr noundef nonnull byval(%"class.llvm::ArrayRef.1088") align 8 %9, i32 %3, ptr noundef nonnull byval(%"class.llvm::MutableArrayRef") align 8 %6, i1 noundef zeroext true)
  ret i64 %11
}